; Function Attrs: mustprogress uwtable
define void @_ZNK8facebook5velox4exec4Expr12appendInputsERNSt7__cxx1118basic_stringstreamIcSt11char_traitsIcESaIcEEE(ptr nocapture noundef nonnull readonly align 8 dereferenceable(442) %this, ptr noundef nonnull align 8 dereferenceable(128) %stream) local_unnamed_addr #3 align 2 personality ptr @__gxx_personality_v0 {
entry:
  %ref.tmp = alloca %"class.std::__cxx11::basic_string", align 8
  %inputs_ = getelementptr inbounds i8, ptr %this, i64 24
  %0 = load ptr, ptr %inputs_, align 8
  %_M_finish.i.i = getelementptr inbounds i8, ptr %this, i64 32
  %1 = load ptr, ptr %_M_finish.i.i, align 8
  %cmp.i.i = icmp eq ptr %0, %1
  br i1 %cmp.i.i, label %if.end17, label %if.then

if.then:                                          ; preds = %entry
  %add.ptr = getelementptr inbounds i8, ptr %stream, i64 16
  %call2 = tail call noundef nonnull align 8 dereferenceable(8) ptr @_ZStlsISt11char_traitsIcEERSt13basic_ostreamIcT_ES5_PKc(ptr noundef nonnull align 8 dereferenceable(8) %add.ptr, ptr noundef nonnull @.str.9)
  %2 = load ptr, ptr %_M_finish.i.i, align 8
  %3 = load ptr, ptr %inputs_, align 8
  %cmp11.not = icmp eq ptr %2, %3
  br i1 %cmp11.not, label %for.end, label %for.body

for.body:                                         ; preds = %if.then, %invoke.cont
  %4 = phi ptr [ %9, %invoke.cont ], [ %3, %if.then ]
  %indvars.iv = phi i64 [ %indvars.iv.next, %invoke.cont ], [ 0, %if.then ]
  %cmp5.not = icmp eq i64 %indvars.iv, 0
  br i1 %cmp5.not, label %if.end, label %if.then6

if.then6:                                         ; preds = %for.body
  %call8 = call noundef nonnull align 8 dereferenceable(8) ptr @_ZStlsISt11char_traitsIcEERSt13basic_ostreamIcT_ES5_PKc(ptr noundef nonnull align 8 dereferenceable(8) %add.ptr, ptr noundef nonnull @.str.10)
  %.pre = load ptr, ptr %inputs_, align 8
  br label %if.end

if.end:                                           ; preds = %if.then6, %for.body
  %5 = phi ptr [ %.pre, %if.then6 ], [ %4, %for.body ]
  %add.ptr.i = getelementptr inbounds %"class.std::shared_ptr.44", ptr %5, i64 %indvars.iv
  %6 = load ptr, ptr %add.ptr.i, align 8
  %vtable = load ptr, ptr %6, align 8
  %vfn = getelementptr inbounds i8, ptr %vtable, i64 64
  %7 = load ptr, ptr %vfn, align 8
  call void %7(ptr nonnull sret(%"class.std::__cxx11::basic_string") align 8 %ref.tmp, ptr noundef nonnull align 8 dereferenceable(442) %6, i1 noundef zeroext true)
  %call14 = invoke noundef nonnull align 8 dereferenceable(8) ptr @_ZStlsIcSt11char_traitsIcESaIcEERSt13basic_ostreamIT_T0_ES7_RKNSt7__cxx1112basic_stringIS4_S5_T1_EE(ptr noundef nonnull align 8 dereferenceable(8) %add.ptr, ptr noundef nonnull align 8 dereferenceable(32) %ref.tmp)
          to label %invoke.cont unwind label %lpad

invoke.cont:                                      ; preds = %if.end
  call void @_ZNSt7__cxx1112basic_stringIcSt11char_traitsIcESaIcEED1Ev(ptr noundef nonnull align 8 dereferenceable(32) %ref.tmp) #31
  %indvars.iv.next = add nuw nsw i64 %indvars.iv, 1
  %8 = load ptr, ptr %_M_finish.i.i, align 8
  %9 = load ptr, ptr %inputs_, align 8
  %sub.ptr.lhs.cast.i = ptrtoint ptr %8 to i64
  %sub.ptr.rhs.cast.i = ptrtoint ptr %9 to i64
  %sub.ptr.sub.i = sub i64 %sub.ptr.lhs.cast.i, %sub.ptr.rhs.cast.i
  %sub.ptr.div.i = ashr exact i64 %sub.ptr.sub.i, 4
  %cmp = icmp ugt i64 %sub.ptr.div.i, %indvars.iv.next
  br i1 %cmp, label %for.body, label %for.end, !llvm.loop !141

lpad:                                             ; preds = %if.end
  %10 = landingpad { ptr, i32 }
          cleanup
  call void @_ZNSt7__cxx1112basic_stringIcSt11char_traitsIcESaIcEED1Ev(ptr noundef nonnull align 8 dereferenceable(32) %ref.tmp) #31
  resume { ptr, i32 } %10

for.end:                                          ; preds = %invoke.cont, %if.then
  %call16 = call noundef nonnull align 8 dereferenceable(8) ptr @_ZStlsISt11char_traitsIcEERSt13basic_ostreamIcT_ES5_PKc(ptr noundef nonnull align 8 dereferenceable(8) %add.ptr, ptr noundef nonnull @.str.11)
  br label %if.end17

if.end17:                                         ; preds = %for.end, %entry
  ret void
}